target datalayout = "e-m:e-p270:32:32-p271:32:32-p272:64:64-i64:64-i128:128-f80:128-n8:16:32:64-S128"
target triple = "x86_64-unknown-linux-gnu"

%struct.BlockDriverState = type { i32, i8, i8, i8, i8, i8, ptr, ptr, ptr, %struct.anon, i8, [4096 x i8], [4096 x i8], [4096 x i8], [16 x i8], ptr, [4096 x i8], %struct.BlockLimits, i32, i32, i32, i32, [32 x i8], %union.anon, %union.anon.0, %union.anon.1, i32, [16 x %struct.anon.2], ptr, %struct.anon.3, ptr, ptr, %struct.anon.4, ptr, ptr, i32, ptr, i64, i64, %struct.QemuMutex, %struct.anon.5, %struct.Stat64, i32, i32, i32, i32, i32, i32, %struct.QemuMutex, %struct.anon.6, %struct.CoQueue, i8, i32, i8, %struct.CoMutex, ptr, ptr }
%struct.anon = type { ptr }
%struct.BlockLimits = type { i32, i64, i32, i64, i32, i32, i32, i64, i32, i64, i64, i32, i8, i32, i32, i32, i32, i32, i32, i32 }
%union.anon = type { %struct.QTailQLink }
%struct.QTailQLink = type { ptr, ptr }
%union.anon.0 = type { %struct.QTailQLink }
%union.anon.1 = type { %struct.QTailQLink }
%struct.anon.2 = type { ptr }
%struct.anon.3 = type { ptr }
%struct.anon.4 = type { ptr }
%struct.anon.5 = type { ptr }
%struct.Stat64 = type { i64 }
%struct.QemuMutex = type { %union.pthread_mutex_t, i8 }
%union.pthread_mutex_t = type { %struct.__pthread_mutex_s }
%struct.__pthread_mutex_s = type { i32, i32, i32, i32, i32, i16, i16, %struct.__pthread_internal_list }
%struct.__pthread_internal_list = type { ptr, ptr }
%struct.anon.6 = type { ptr }
%struct.CoQueue = type { %struct.anon.7 }
%struct.anon.7 = type { ptr, ptr }
%struct.CoMutex = type { i32, ptr, %struct.anon.8, %struct.anon.8, i32, i32, ptr }
%struct.anon.8 = type { ptr }
%struct.BdrvChild = type { ptr, ptr, ptr, i32, ptr, i64, i64, i8, i8, %struct.anon.12, %struct.anon.13 }
%struct.anon.12 = type { ptr, ptr }
%struct.anon.13 = type { ptr, ptr }
%struct.QEMUIOVector = type { ptr, i32, %union.anon.15 }
%union.anon.15 = type { %struct.anon.16 }
%struct.anon.16 = type { i32, %struct.iovec }
%struct.iovec = type { ptr, i64 }
%struct.anon.17 = type { [12 x i8], i64 }
%struct.BlockDriver = type { ptr, i32, i8, i8, i8, i8, i8, i8, ptr, ptr, ptr, ptr, ptr, ptr, ptr, ptr, ptr, ptr, ptr, ptr, ptr, ptr, ptr, ptr, ptr, ptr, ptr, ptr, ptr, ptr, ptr, ptr, ptr, ptr, ptr, ptr, ptr, ptr, ptr, ptr, ptr, ptr, ptr, ptr, ptr, ptr, ptr, ptr, ptr, ptr, ptr, ptr, ptr, ptr, ptr, ptr, ptr, ptr, ptr, ptr, ptr, %struct.anon.18, ptr, ptr, ptr, ptr, ptr, ptr, ptr, ptr, ptr, ptr, ptr, ptr, ptr, ptr, ptr, ptr, ptr, ptr, ptr, ptr, ptr, ptr, ptr, ptr, ptr, ptr, ptr, ptr, ptr, ptr, ptr, ptr, ptr, ptr, ptr, ptr, ptr, ptr, ptr, ptr, ptr, ptr, ptr, ptr, ptr, ptr, ptr, ptr, ptr }
%struct.anon.18 = type { ptr, ptr }

@.str.2 = private unnamed_addr constant [30 x i8] c"../qemu/block/qcow2-cluster.c\00", align 1
@.str.54 = private unnamed_addr constant [32 x i8] c"src_cluster_offset <= INT64_MAX\00", align 1
@__PRETTY_FUNCTION__.do_perform_cow_read = private unnamed_addr constant [84 x i8] c"int do_perform_cow_read(BlockDriverState *, uint64_t, unsigned int, QEMUIOVector *)\00", align 1
@.str.55 = private unnamed_addr constant [52 x i8] c"src_cluster_offset + offset_in_cluster <= INT64_MAX\00", align 1
@.str.56 = private unnamed_addr constant [34 x i8] c"(uint64_t)qiov->size <= INT64_MAX\00", align 1
@error_abort = external global ptr, align 8
@.str.57 = private unnamed_addr constant [13 x i8] c"coroutine_fn\00", section "llvm.metadata"
@.str.58 = private unnamed_addr constant [111 x i8] c"/home/dtcxzyw/WorkSpace/Projects/compilers/llvm-opt-benchmark/bench/qemu/qemu/include/block/block_int-common.h\00", section "llvm.metadata"

; Function Attrs: nounwind sspstrong uwtable
define internal i32 @do_perform_cow_read(ptr noundef %bs, i64 noundef %src_cluster_offset, i32 noundef %offset_in_cluster, ptr noundef %qiov) #0 {
entry:
  %retval = alloca i32, align 4
  %bs.addr = alloca ptr, align 8
  %src_cluster_offset.addr = alloca i64, align 8
  %offset_in_cluster.addr = alloca i32, align 4
  %qiov.addr = alloca ptr, align 8
  %ret = alloca i32, align 4
  store ptr %bs, ptr %bs.addr, align 8
  store i64 %src_cluster_offset, ptr %src_cluster_offset.addr, align 8
  store i32 %offset_in_cluster, ptr %offset_in_cluster.addr, align 4
  store ptr %qiov, ptr %qiov.addr, align 8
  %0 = load ptr, ptr %qiov.addr, align 8
  %1 = getelementptr inbounds %struct.QEMUIOVector, ptr %0, i32 0, i32 2
  %size = getelementptr inbounds %struct.anon.17, ptr %1, i32 0, i32 1
  %2 = load i64, ptr %size, align 8
  %cmp = icmp eq i64 %2, 0
  br i1 %cmp, label %if.then, label %if.end

if.then:                                          ; preds = %entry
  store i32 0, ptr %retval, align 4
  br label %return

if.end:                                           ; preds = %entry
  br label %do.body

do.body:                                          ; preds = %if.end
  %3 = load ptr, ptr %bs.addr, align 8
  %file = getelementptr inbounds %struct.BlockDriverState, ptr %3, i32 0, i32 31
  %4 = load ptr, ptr %file, align 8
  %tobool = icmp ne ptr %4, null
  br i1 %tobool, label %if.then1, label %if.end4

if.then1:                                         ; preds = %do.body
  %5 = load ptr, ptr %bs.addr, align 8
  %file2 = getelementptr inbounds %struct.BlockDriverState, ptr %5, i32 0, i32 31
  %6 = load ptr, ptr %file2, align 8
  %bs3 = getelementptr inbounds %struct.BdrvChild, ptr %6, i32 0, i32 0
  %7 = load ptr, ptr %bs3, align 8
  call void @bdrv_co_debug_event(ptr noundef %7, i32 noundef 16)
  br label %if.end4

if.end4:                                          ; preds = %if.then1, %do.body
  br label %do.end

do.end:                                           ; preds = %if.end4
  %8 = load ptr, ptr %bs.addr, align 8
  %drv = getelementptr inbounds %struct.BlockDriverState, ptr %8, i32 0, i32 6
  %9 = load ptr, ptr %drv, align 8
  %tobool5 = icmp ne ptr %9, null
  br i1 %tobool5, label %if.end7, label %if.then6

if.then6:                                         ; preds = %do.end
  store i32 -123, ptr %retval, align 4
  br label %return

if.end7:                                          ; preds = %do.end
  %10 = load i64, ptr %src_cluster_offset.addr, align 8
  %cmp8 = icmp ule i64 %10, 9223372036854775807
  br i1 %cmp8, label %if.then9, label %if.else

if.then9:                                         ; preds = %if.end7
  br label %if.end10

if.else:                                          ; preds = %if.end7
  call void @__assert_fail(ptr noundef @.str.54, ptr noundef @.str.2, i32 noundef 517, ptr noundef @__PRETTY_FUNCTION__.do_perform_cow_read) #12
  unreachable

if.end10:                                         ; preds = %if.then9
  %11 = load i64, ptr %src_cluster_offset.addr, align 8
  %12 = load i32, ptr %offset_in_cluster.addr, align 4
  %conv = zext i32 %12 to i64
  %add = add i64 %11, %conv
  %cmp11 = icmp ule i64 %add, 9223372036854775807
  br i1 %cmp11, label %if.then13, label %if.else14

if.then13:                                        ; preds = %if.end10
  br label %if.end15

if.else14:                                        ; preds = %if.end10
  call void @__assert_fail(ptr noundef @.str.55, ptr noundef @.str.2, i32 noundef 518, ptr noundef @__PRETTY_FUNCTION__.do_perform_cow_read) #12
  unreachable

if.end15:                                         ; preds = %if.then13
  %13 = load ptr, ptr %qiov.addr, align 8
  %14 = getelementptr inbounds %struct.QEMUIOVector, ptr %13, i32 0, i32 2
  %size16 = getelementptr inbounds %struct.anon.17, ptr %14, i32 0, i32 1
  %15 = load i64, ptr %size16, align 8
  %cmp17 = icmp ule i64 %15, 9223372036854775807
  br i1 %cmp17, label %if.then19, label %if.else20

if.then19:                                        ; preds = %if.end15
  br label %if.end21

if.else20:                                        ; preds = %if.end15
  call void @__assert_fail(ptr noundef @.str.56, ptr noundef @.str.2, i32 noundef 520, ptr noundef @__PRETTY_FUNCTION__.do_perform_cow_read) #12
  unreachable

if.end21:                                         ; preds = %if.then19
  %16 = load i64, ptr %src_cluster_offset.addr, align 8
  %17 = load i32, ptr %offset_in_cluster.addr, align 4
  %conv22 = zext i32 %17 to i64
  %add23 = add i64 %16, %conv22
  %18 = load ptr, ptr %qiov.addr, align 8
  %19 = getelementptr inbounds %struct.QEMUIOVector, ptr %18, i32 0, i32 2
  %size24 = getelementptr inbounds %struct.anon.17, ptr %19, i32 0, i32 1
  %20 = load i64, ptr %size24, align 8
  %21 = load ptr, ptr %qiov.addr, align 8
  %call = call i32 @bdrv_check_qiov_request(i64 noundef %add23, i64 noundef %20, ptr noundef %21, i64 noundef 0, ptr noundef @error_abort)
  %22 = load ptr, ptr %bs.addr, align 8
  %drv25 = getelementptr inbounds %struct.BlockDriverState, ptr %22, i32 0, i32 6
  %23 = load ptr, ptr %drv25, align 8
  %bdrv_co_preadv_part = getelementptr inbounds %struct.BlockDriver, ptr %23, i32 0, i32 70
  %24 = call ptr @llvm.ptr.annotation.p0.p0(ptr %bdrv_co_preadv_part, ptr @.str.57, ptr @.str.58, i32 538, ptr null)
  %25 = load ptr, ptr %24, align 8
  %26 = load ptr, ptr %bs.addr, align 8
  %27 = load i64, ptr %src_cluster_offset.addr, align 8
  %28 = load i32, ptr %offset_in_cluster.addr, align 4
  %conv26 = zext i32 %28 to i64
  %add27 = add i64 %27, %conv26
  %29 = load ptr, ptr %qiov.addr, align 8
  %30 = getelementptr inbounds %struct.QEMUIOVector, ptr %29, i32 0, i32 2
  %size28 = getelementptr inbounds %struct.anon.17, ptr %30, i32 0, i32 1
  %31 = load i64, ptr %size28, align 8
  %32 = load ptr, ptr %qiov.addr, align 8
  %call29 = call i32 %25(ptr noundef %26, i64 noundef %add27, i64 noundef %31, ptr noundef %32, i64 noundef 0, i32 noundef 0)
  store i32 %call29, ptr %ret, align 4
  %33 = load i32, ptr %ret, align 4
  %cmp30 = icmp slt i32 %33, 0
  br i1 %cmp30, label %if.then32, label %if.end33

if.then32:                                        ; preds = %if.end21
  %34 = load i32, ptr %ret, align 4
  store i32 %34, ptr %retval, align 4
  br label %return

if.end33:                                         ; preds = %if.end21
  store i32 0, ptr %retval, align 4
  br label %return

return:                                           ; preds = %if.end33, %if.then32, %if.then6, %if.then
  %35 = load i32, ptr %retval, align 4
  ret i32 %35
}