; Function Attrs: nounwind sspstrong uwtable
define internal range(i32 -2147483648, 1) i32 @do_perform_cow_read(ptr noundef %bs, i64 noundef %src_cluster_offset, i32 noundef %offset_in_cluster, ptr noundef %qiov) #0 {
entry:
  %size = getelementptr inbounds nuw i8, ptr %qiov, i64 32
  %0 = load i64, ptr %size, align 8
  %cmp = icmp eq i64 %0, 0
  br i1 %cmp, label %return, label %do.body

do.body:                                          ; preds = %entry
  %file = getelementptr inbounds nuw i8, ptr %bs, i64 16840
  %1 = load ptr, ptr %file, align 8
  %tobool.not = icmp eq ptr %1, null
  br i1 %tobool.not, label %do.end, label %if.then1

if.then1:                                         ; preds = %do.body
  %2 = load ptr, ptr %1, align 8
  tail call void @bdrv_co_debug_event(ptr noundef %2, i32 noundef 16) #13
  br label %do.end

do.end:                                           ; preds = %do.body, %if.then1
  %drv = getelementptr inbounds nuw i8, ptr %bs, i64 16
  %3 = load ptr, ptr %drv, align 8
  %tobool5.not = icmp eq ptr %3, null
  br i1 %tobool5.not, label %return, label %if.end7

if.end7:                                          ; preds = %do.end
  %cmp8 = icmp sgt i64 %src_cluster_offset, -1
  br i1 %cmp8, label %if.end10, label %if.else

if.else:                                          ; preds = %if.end7
  tail call void @__assert_fail(ptr noundef nonnull @.str.54, ptr noundef nonnull @.str.2, i32 noundef 517, ptr noundef nonnull @__PRETTY_FUNCTION__.do_perform_cow_read) #15
  unreachable

if.end10:                                         ; preds = %if.end7
  %conv = zext i32 %offset_in_cluster to i64
  %add = add nuw i64 %src_cluster_offset, %conv
  %cmp11 = icmp sgt i64 %add, -1
  br i1 %cmp11, label %if.end15, label %if.else14

if.else14:                                        ; preds = %if.end10
  tail call void @__assert_fail(ptr noundef nonnull @.str.55, ptr noundef nonnull @.str.2, i32 noundef 518, ptr noundef nonnull @__PRETTY_FUNCTION__.do_perform_cow_read) #15
  unreachable

if.end15:                                         ; preds = %if.end10
  %4 = load i64, ptr %size, align 8
  %cmp17 = icmp sgt i64 %4, -1
  br i1 %cmp17, label %if.end21, label %if.else20

if.else20:                                        ; preds = %if.end15
  tail call void @__assert_fail(ptr noundef nonnull @.str.56, ptr noundef nonnull @.str.2, i32 noundef 520, ptr noundef nonnull @__PRETTY_FUNCTION__.do_perform_cow_read) #15
  unreachable

if.end21:                                         ; preds = %if.end15
  %call = tail call i32 @bdrv_check_qiov_request(i64 noundef %add, i64 noundef %4, ptr noundef nonnull %qiov, i64 noundef 0, ptr noundef nonnull @error_abort) #13
  %5 = load ptr, ptr %drv, align 8
  %bdrv_co_preadv_part = getelementptr inbounds nuw i8, ptr %5, i64 528
  %6 = tail call ptr @llvm.ptr.annotation.p0.p0(ptr nonnull %bdrv_co_preadv_part, ptr nonnull @.str.57, ptr nonnull @.str.58, i32 538, ptr null)
  %7 = load ptr, ptr %6, align 8
  %8 = load i64, ptr %size, align 8
  %call29 = tail call i32 %7(ptr noundef nonnull %bs, i64 noundef %add, i64 noundef %8, ptr noundef nonnull %qiov, i64 noundef 0, i32 noundef 0) #13
  %call29. = tail call i32 @llvm.smin.i32(i32 %call29, i32 0)
  br label %return

return:                                           ; preds = %if.end21, %do.end, %entry
  %retval.0 = phi i32 [ 0, %entry ], [ -123, %do.end ], [ %call29., %if.end21 ]
  ret i32 %retval.0
}